target datalayout = "e-m:e-p270:32:32-p271:32:32-p272:64:64-i64:64-i128:128-f80:128-n8:16:32:64-S128"
target triple = "x86_64-pc-linux-gnu"

%struct.AVFilterContext = type { ptr, ptr, ptr, ptr, ptr, i32, ptr, ptr, i32, ptr, ptr, i32, i32, ptr, ptr, ptr, ptr, i32, ptr, i32, i32 }
%struct.AudioDelayContext = type { ptr, i32, ptr, ptr, i32, i32, i64, i64, i64, i64, i32, ptr, ptr, ptr }
%struct.ChanDelay = type { i64, i64, i64, i32, ptr }
%struct.AVFilterLink = type { ptr, ptr, ptr, ptr, i32, i32, i32, i32, %struct.AVRational, i32, i32, i32, %struct.AVChannelLayout, %struct.AVRational, ptr, i32, %struct.AVFilterFormatsConfig, %struct.AVFilterFormatsConfig }
%struct.AVChannelLayout = type { i32, i32, %union.anon.1, ptr }
%union.anon.1 = type { i64 }
%struct.AVRational = type { i32, i32 }
%struct.AVFilterFormatsConfig = type { ptr, ptr, ptr, ptr, ptr }
%struct.AVFrame = type { [8 x ptr], [8 x i32], ptr, i32, i32, i32, i32, i32, %struct.AVRational, i64, i64, %struct.AVRational, i32, ptr, i32, i32, [8 x ptr], ptr, i32, ptr, i32, i32, i32, i32, i32, i32, i32, i64, ptr, i32, ptr, ptr, i64, i64, i64, i64, ptr, %struct.AVChannelLayout, i64 }

; Function Attrs: nounwind uwtable
define internal i32 @filter_frame(ptr noundef %0, ptr noundef %1) #1 {
  %3 = alloca i32, align 4
  %4 = alloca ptr, align 8
  %5 = alloca ptr, align 8
  %6 = alloca ptr, align 8
  %7 = alloca ptr, align 8
  %8 = alloca ptr, align 8
  %9 = alloca ptr, align 8
  %10 = alloca i32, align 4
  %11 = alloca i32, align 4
  %12 = alloca ptr, align 8
  %13 = alloca ptr, align 8
  %14 = alloca ptr, align 8
  %15 = alloca %struct.AVRational, align 4
  store ptr %0, ptr %4, align 8, !tbaa !35
  store ptr %1, ptr %5, align 8, !tbaa !53
  call void @llvm.lifetime.start.p0(i64 8, ptr %6) #9
  %16 = load ptr, ptr %4, align 8, !tbaa !35
  %17 = getelementptr inbounds nuw %struct.AVFilterLink, ptr %16, i32 0, i32 2
  %18 = load ptr, ptr %17, align 8, !tbaa !70
  store ptr %18, ptr %6, align 8, !tbaa !4
  call void @llvm.lifetime.start.p0(i64 8, ptr %7) #9
  %19 = load ptr, ptr %6, align 8, !tbaa !4
  %20 = getelementptr inbounds nuw %struct.AVFilterContext, ptr %19, i32 0, i32 7
  %21 = load ptr, ptr %20, align 8, !tbaa !52
  %22 = getelementptr inbounds ptr, ptr %21, i64 0
  %23 = load ptr, ptr %22, align 8, !tbaa !35
  store ptr %23, ptr %7, align 8, !tbaa !35
  call void @llvm.lifetime.start.p0(i64 8, ptr %8) #9
  %24 = load ptr, ptr %6, align 8, !tbaa !4
  %25 = getelementptr inbounds nuw %struct.AVFilterContext, ptr %24, i32 0, i32 9
  %26 = load ptr, ptr %25, align 8, !tbaa !9
  store ptr %26, ptr %8, align 8, !tbaa !22
  call void @llvm.lifetime.start.p0(i64 8, ptr %9) #9
  call void @llvm.lifetime.start.p0(i64 4, ptr %10) #9
  %27 = load ptr, ptr %6, align 8, !tbaa !4
  %28 = getelementptr inbounds nuw %struct.AVFilterContext, ptr %27, i32 0, i32 17
  %29 = load i32, ptr %28, align 8, !tbaa !108
  %30 = icmp ne i32 %29, 0
  br i1 %30, label %36, label %31

31:                                               ; preds = %2
  %32 = load ptr, ptr %8, align 8, !tbaa !22
  %33 = getelementptr inbounds nuw %struct.AudioDelayContext, ptr %32, i32 0, i32 2
  %34 = load ptr, ptr %33, align 8, !tbaa !73
  %35 = icmp ne ptr %34, null
  br i1 %35, label %42, label %36

36:                                               ; preds = %31, %2
  %37 = load ptr, ptr %8, align 8, !tbaa !22
  %38 = getelementptr inbounds nuw %struct.AudioDelayContext, ptr %37, i32 0, i32 11
  store ptr null, ptr %38, align 8, !tbaa !54
  %39 = load ptr, ptr %7, align 8, !tbaa !35
  %40 = load ptr, ptr %5, align 8, !tbaa !53
  %41 = call i32 @ff_filter_frame(ptr noundef %39, ptr noundef %40)
  store i32 %41, ptr %3, align 4
  store i32 1, ptr %11, align 4
  br label %163

42:                                               ; preds = %31
  %43 = load ptr, ptr %5, align 8, !tbaa !53
  %44 = getelementptr inbounds nuw %struct.AVFrame, ptr %43, i32 0, i32 9
  %45 = load i64, ptr %44, align 8, !tbaa !69
  %46 = load ptr, ptr %4, align 8, !tbaa !35
  %47 = getelementptr inbounds nuw %struct.AVFilterLink, ptr %46, i32 0, i32 13
  %48 = load ptr, ptr %7, align 8, !tbaa !35
  %49 = getelementptr inbounds nuw %struct.AVFilterLink, ptr %48, i32 0, i32 13
  %50 = load i64, ptr %47, align 8
  %51 = load i64, ptr %49, align 8
  %52 = call i64 @av_rescale_q(i64 noundef %45, i64 %50, i64 %51) #11
  %53 = load ptr, ptr %8, align 8, !tbaa !22
  %54 = getelementptr inbounds nuw %struct.AudioDelayContext, ptr %53, i32 0, i32 9
  store i64 %52, ptr %54, align 8, !tbaa !56
  %55 = load ptr, ptr %7, align 8, !tbaa !35
  %56 = load ptr, ptr %5, align 8, !tbaa !53
  %57 = getelementptr inbounds nuw %struct.AVFrame, ptr %56, i32 0, i32 5
  %58 = load i32, ptr %57, align 8, !tbaa !63
  %59 = call ptr @ff_get_audio_buffer(ptr noundef %55, i32 noundef %58)
  store ptr %59, ptr %9, align 8, !tbaa !53
  %60 = load ptr, ptr %9, align 8, !tbaa !53
  %61 = icmp ne ptr %60, null
  br i1 %61, label %65, label %62

62:                                               ; preds = %42
  %63 = load ptr, ptr %8, align 8, !tbaa !22
  %64 = getelementptr inbounds nuw %struct.AudioDelayContext, ptr %63, i32 0, i32 11
  store ptr null, ptr %64, align 8, !tbaa !54
  call void @av_frame_free(ptr noundef %5)
  store i32 -12, ptr %3, align 4
  store i32 1, ptr %11, align 4
  br label %163

65:                                               ; preds = %42
  %66 = load ptr, ptr %9, align 8, !tbaa !53
  %67 = load ptr, ptr %5, align 8, !tbaa !53
  %68 = call i32 @av_frame_copy_props(ptr noundef %66, ptr noundef %67)
  store i32 0, ptr %10, align 4, !tbaa !29
  br label %69

69:                                               ; preds = %122, %65
  %70 = load i32, ptr %10, align 4, !tbaa !29
  %71 = load ptr, ptr %8, align 8, !tbaa !22
  %72 = getelementptr inbounds nuw %struct.AudioDelayContext, ptr %71, i32 0, i32 4
  %73 = load i32, ptr %72, align 8, !tbaa !30
  %74 = icmp slt i32 %70, %73
  br i1 %74, label %75, label %125

75:                                               ; preds = %69
  call void @llvm.lifetime.start.p0(i64 8, ptr %12) #9
  %76 = load ptr, ptr %8, align 8, !tbaa !22
  %77 = getelementptr inbounds nuw %struct.AudioDelayContext, ptr %76, i32 0, i32 3
  %78 = load ptr, ptr %77, align 8, !tbaa !24
  %79 = load i32, ptr %10, align 4, !tbaa !29
  %80 = sext i32 %79 to i64
  %81 = getelementptr inbounds %struct.ChanDelay, ptr %78, i64 %80
  store ptr %81, ptr %12, align 8, !tbaa !46
  call void @llvm.lifetime.start.p0(i64 8, ptr %13) #9
  %82 = load ptr, ptr %5, align 8, !tbaa !53
  %83 = getelementptr inbounds nuw %struct.AVFrame, ptr %82, i32 0, i32 2
  %84 = load ptr, ptr %83, align 8, !tbaa !58
  %85 = load i32, ptr %10, align 4, !tbaa !29
  %86 = sext i32 %85 to i64
  %87 = getelementptr inbounds ptr, ptr %84, i64 %86
  %88 = load ptr, ptr %87, align 8, !tbaa !33
  store ptr %88, ptr %13, align 8, !tbaa !33
  call void @llvm.lifetime.start.p0(i64 8, ptr %14) #9
  %89 = load ptr, ptr %9, align 8, !tbaa !53
  %90 = getelementptr inbounds nuw %struct.AVFrame, ptr %89, i32 0, i32 2
  %91 = load ptr, ptr %90, align 8, !tbaa !58
  %92 = load i32, ptr %10, align 4, !tbaa !29
  %93 = sext i32 %92 to i64
  %94 = getelementptr inbounds ptr, ptr %91, i64 %93
  %95 = load ptr, ptr %94, align 8, !tbaa !33
  store ptr %95, ptr %14, align 8, !tbaa !33
  %96 = load ptr, ptr %12, align 8, !tbaa !46
  %97 = getelementptr inbounds nuw %struct.ChanDelay, ptr %96, i32 0, i32 0
  %98 = load i64, ptr %97, align 8, !tbaa !48
  %99 = icmp ne i64 %98, 0
  br i1 %99, label %111, label %100

100:                                              ; preds = %75
  %101 = load ptr, ptr %14, align 8, !tbaa !33
  %102 = load ptr, ptr %13, align 8, !tbaa !33
  %103 = load ptr, ptr %5, align 8, !tbaa !53
  %104 = getelementptr inbounds nuw %struct.AVFrame, ptr %103, i32 0, i32 5
  %105 = load i32, ptr %104, align 8, !tbaa !63
  %106 = load ptr, ptr %8, align 8, !tbaa !22
  %107 = getelementptr inbounds nuw %struct.AudioDelayContext, ptr %106, i32 0, i32 5
  %108 = load i32, ptr %107, align 4, !tbaa !72
  %109 = mul nsw i32 %105, %108
  %110 = sext i32 %109 to i64
  call void @llvm.memcpy.p0.p0.i64(ptr align 1 %101, ptr align 1 %102, i64 %110, i1 false)
  br label %121

111:                                              ; preds = %75
  %112 = load ptr, ptr %8, align 8, !tbaa !22
  %113 = getelementptr inbounds nuw %struct.AudioDelayContext, ptr %112, i32 0, i32 12
  %114 = load ptr, ptr %113, align 8, !tbaa !83
  %115 = load ptr, ptr %12, align 8, !tbaa !46
  %116 = load ptr, ptr %5, align 8, !tbaa !53
  %117 = getelementptr inbounds nuw %struct.AVFrame, ptr %116, i32 0, i32 5
  %118 = load i32, ptr %117, align 8, !tbaa !63
  %119 = load ptr, ptr %13, align 8, !tbaa !33
  %120 = load ptr, ptr %14, align 8, !tbaa !33
  call void %114(ptr noundef %115, i32 noundef %118, ptr noundef %119, ptr noundef %120)
  br label %121

121:                                              ; preds = %111, %100
  call void @llvm.lifetime.end.p0(i64 8, ptr %14) #9
  call void @llvm.lifetime.end.p0(i64 8, ptr %13) #9
  call void @llvm.lifetime.end.p0(i64 8, ptr %12) #9
  br label %122

122:                                              ; preds = %121
  %123 = load i32, ptr %10, align 4, !tbaa !29
  %124 = add nsw i32 %123, 1
  store i32 %124, ptr %10, align 4, !tbaa !29
  br label %69, !llvm.loop !109

125:                                              ; preds = %69
  %126 = load ptr, ptr %8, align 8, !tbaa !22
  %127 = getelementptr inbounds nuw %struct.AudioDelayContext, ptr %126, i32 0, i32 9
  %128 = load i64, ptr %127, align 8, !tbaa !56
  %129 = load ptr, ptr %8, align 8, !tbaa !22
  %130 = getelementptr inbounds nuw %struct.AudioDelayContext, ptr %129, i32 0, i32 8
  %131 = load i64, ptr %130, align 8, !tbaa !79
  %132 = add nsw i64 %128, %131
  %133 = load ptr, ptr %9, align 8, !tbaa !53
  %134 = getelementptr inbounds nuw %struct.AVFrame, ptr %133, i32 0, i32 9
  store i64 %132, ptr %134, align 8, !tbaa !69
  %135 = load ptr, ptr %9, align 8, !tbaa !53
  %136 = getelementptr inbounds nuw %struct.AVFrame, ptr %135, i32 0, i32 5
  %137 = load i32, ptr %136, align 8, !tbaa !63
  %138 = sext i32 %137 to i64
  %139 = getelementptr inbounds nuw %struct.AVRational, ptr %15, i32 0, i32 0
  store i32 1, ptr %139, align 4, !tbaa !66
  %140 = getelementptr inbounds nuw %struct.AVRational, ptr %15, i32 0, i32 1
  %141 = load ptr, ptr %7, align 8, !tbaa !35
  %142 = getelementptr inbounds nuw %struct.AVFilterLink, ptr %141, i32 0, i32 11
  %143 = load i32, ptr %142, align 8, !tbaa !38
  store i32 %143, ptr %140, align 4, !tbaa !67
  %144 = load ptr, ptr %7, align 8, !tbaa !35
  %145 = getelementptr inbounds nuw %struct.AVFilterLink, ptr %144, i32 0, i32 13
  %146 = load i64, ptr %15, align 4
  %147 = load i64, ptr %145, align 8
  %148 = call i64 @av_rescale_q(i64 noundef %138, i64 %146, i64 %147) #11
  %149 = load ptr, ptr %9, align 8, !tbaa !53
  %150 = getelementptr inbounds nuw %struct.AVFrame, ptr %149, i32 0, i32 38
  store i64 %148, ptr %150, align 8, !tbaa !68
  %151 = load ptr, ptr %9, align 8, !tbaa !53
  %152 = getelementptr inbounds nuw %struct.AVFrame, ptr %151, i32 0, i32 38
  %153 = load i64, ptr %152, align 8, !tbaa !68
  %154 = load ptr, ptr %8, align 8, !tbaa !22
  %155 = getelementptr inbounds nuw %struct.AudioDelayContext, ptr %154, i32 0, i32 9
  %156 = load i64, ptr %155, align 8, !tbaa !56
  %157 = add nsw i64 %156, %153
  store i64 %157, ptr %155, align 8, !tbaa !56
  call void @av_frame_free(ptr noundef %5)
  %158 = load ptr, ptr %8, align 8, !tbaa !22
  %159 = getelementptr inbounds nuw %struct.AudioDelayContext, ptr %158, i32 0, i32 11
  store ptr null, ptr %159, align 8, !tbaa !54
  %160 = load ptr, ptr %7, align 8, !tbaa !35
  %161 = load ptr, ptr %9, align 8, !tbaa !53
  %162 = call i32 @ff_filter_frame(ptr noundef %160, ptr noundef %161)
  store i32 %162, ptr %3, align 4
  store i32 1, ptr %11, align 4
  br label %163

163:                                              ; preds = %125, %62, %36
  call void @llvm.lifetime.end.p0(i64 4, ptr %10) #9
  call void @llvm.lifetime.end.p0(i64 8, ptr %9) #9
  call void @llvm.lifetime.end.p0(i64 8, ptr %8) #9
  call void @llvm.lifetime.end.p0(i64 8, ptr %7) #9
  call void @llvm.lifetime.end.p0(i64 8, ptr %6) #9
  %164 = load i32, ptr %3, align 4
  ret i32 %164
}