; Function Attrs: nounwind uwtable
define internal fastcc i32 @filter_frame(ptr noundef readonly captures(none) %0, ptr noundef nonnull %1) unnamed_addr #1 {
  %3 = alloca ptr, align 8
  store ptr %1, ptr %3, align 8, !tbaa !96
  %4 = getelementptr inbounds nuw i8, ptr %0, i64 16
  %5 = load ptr, ptr %4, align 8, !tbaa !65
  %6 = getelementptr inbounds nuw i8, ptr %5, i64 56
  %7 = load ptr, ptr %6, align 8, !tbaa !50
  %8 = load ptr, ptr %7, align 8, !tbaa !29
  %9 = getelementptr inbounds nuw i8, ptr %5, i64 72
  %10 = load ptr, ptr %9, align 8, !tbaa !4
  %11 = getelementptr inbounds nuw i8, ptr %5, i64 128
  %12 = load i32, ptr %11, align 8, !tbaa !97
  %.not = icmp eq i32 %12, 0
  br i1 %.not, label %13, label %16

13:                                               ; preds = %2
  %14 = getelementptr inbounds nuw i8, ptr %10, i64 16
  %15 = load ptr, ptr %14, align 8, !tbaa !68
  %.not44 = icmp eq ptr %15, null
  br i1 %.not44, label %16, label %19

16:                                               ; preds = %13, %2
  %17 = getelementptr inbounds nuw i8, ptr %10, i64 80
  store ptr null, ptr %17, align 8, !tbaa !51
  %18 = tail call i32 @ff_filter_frame(ptr noundef %8, ptr noundef nonnull %1) #10
  br label %81

19:                                               ; preds = %13
  %20 = getelementptr inbounds nuw i8, ptr %1, i64 136
  %21 = load i64, ptr %20, align 8, !tbaa !64
  %22 = getelementptr inbounds nuw i8, ptr %0, i64 96
  %23 = getelementptr inbounds nuw i8, ptr %8, i64 96
  %24 = load i64, ptr %22, align 8
  %25 = load i64, ptr %23, align 8
  %26 = tail call i64 @av_rescale_q(i64 noundef %21, i64 %24, i64 %25) #12
  %27 = getelementptr inbounds nuw i8, ptr %10, i64 64
  store i64 %26, ptr %27, align 8, !tbaa !53
  %28 = getelementptr inbounds nuw i8, ptr %1, i64 112
  %29 = load i32, ptr %28, align 8, !tbaa !60
  %30 = tail call ptr @ff_get_audio_buffer(ptr noundef %8, i32 noundef %29) #10
  %.not45 = icmp eq ptr %30, null
  br i1 %.not45, label %31, label %33

31:                                               ; preds = %19
  %32 = getelementptr inbounds nuw i8, ptr %10, i64 80
  store ptr null, ptr %32, align 8, !tbaa !51
  call void @av_frame_free(ptr noundef nonnull %3) #10
  br label %81

33:                                               ; preds = %19
  %34 = tail call i32 @av_frame_copy_props(ptr noundef nonnull %30, ptr noundef nonnull %1) #10
  %35 = getelementptr inbounds nuw i8, ptr %10, i64 32
  %36 = load i32, ptr %35, align 8, !tbaa !25
  %37 = icmp sgt i32 %36, 0
  br i1 %37, label %.lr.ph, label %._crit_edge

.lr.ph:                                           ; preds = %33
  %38 = getelementptr inbounds nuw i8, ptr %10, i64 24
  %39 = getelementptr inbounds nuw i8, ptr %1, i64 96
  %40 = getelementptr inbounds nuw i8, ptr %30, i64 96
  %41 = getelementptr inbounds nuw i8, ptr %10, i64 88
  %42 = getelementptr inbounds nuw i8, ptr %10, i64 36
  br label %43

43:                                               ; preds = %.lr.ph, %61
  %indvars.iv = phi i64 [ 0, %.lr.ph ], [ %indvars.iv.next, %61 ]
  %44 = load ptr, ptr %38, align 8, !tbaa !20
  %45 = getelementptr inbounds nuw %struct.ChanDelay, ptr %44, i64 %indvars.iv
  %46 = load ptr, ptr %39, align 8, !tbaa !55
  %47 = getelementptr inbounds nuw ptr, ptr %46, i64 %indvars.iv
  %48 = load ptr, ptr %47, align 8, !tbaa !31
  %49 = load ptr, ptr %40, align 8, !tbaa !55
  %50 = getelementptr inbounds nuw ptr, ptr %49, i64 %indvars.iv
  %51 = load ptr, ptr %50, align 8, !tbaa !31
  %52 = load i64, ptr %45, align 8, !tbaa !46
  %.not46 = icmp eq i64 %52, 0
  br i1 %.not46, label %53, label %58

53:                                               ; preds = %43
  %54 = load i32, ptr %28, align 8, !tbaa !60
  %55 = load i32, ptr %42, align 4, !tbaa !67
  %56 = mul nsw i32 %55, %54
  %57 = sext i32 %56 to i64
  tail call void @llvm.memcpy.p0.p0.i64(ptr align 1 %51, ptr align 1 %48, i64 %57, i1 false)
  br label %61

58:                                               ; preds = %43
  %59 = load ptr, ptr %41, align 8, !tbaa !78
  %60 = load i32, ptr %28, align 8, !tbaa !60
  tail call void %59(ptr noundef nonnull %45, i32 noundef %60, ptr noundef %48, ptr noundef %51) #10
  br label %61

61:                                               ; preds = %58, %53
  %indvars.iv.next = add nuw nsw i64 %indvars.iv, 1
  %62 = load i32, ptr %35, align 8, !tbaa !25
  %63 = sext i32 %62 to i64
  %64 = icmp slt i64 %indvars.iv.next, %63
  br i1 %64, label %43, label %._crit_edge, !llvm.loop !98

._crit_edge:                                      ; preds = %61, %33
  %65 = load i64, ptr %27, align 8, !tbaa !53
  %66 = getelementptr inbounds nuw i8, ptr %10, i64 56
  %67 = load i64, ptr %66, align 8, !tbaa !74
  %68 = add nsw i64 %67, %65
  %69 = getelementptr inbounds nuw i8, ptr %30, i64 136
  store i64 %68, ptr %69, align 8, !tbaa !64
  %70 = getelementptr inbounds nuw i8, ptr %30, i64 112
  %71 = load i32, ptr %70, align 8, !tbaa !60
  %72 = sext i32 %71 to i64
  %73 = getelementptr inbounds nuw i8, ptr %8, i64 64
  %74 = load i32, ptr %73, align 8, !tbaa !33
  %.sroa.2.0.insert.ext = zext i32 %74 to i64
  %.sroa.2.0.insert.shift = shl nuw i64 %.sroa.2.0.insert.ext, 32
  %.sroa.0.0.insert.insert = or disjoint i64 %.sroa.2.0.insert.shift, 1
  %75 = load i64, ptr %23, align 8
  %76 = tail call i64 @av_rescale_q(i64 noundef %72, i64 %.sroa.0.0.insert.insert, i64 %75) #12
  %77 = getelementptr inbounds nuw i8, ptr %30, i64 408
  store i64 %76, ptr %77, align 8, !tbaa !63
  %78 = add nsw i64 %76, %65
  store i64 %78, ptr %27, align 8, !tbaa !53
  call void @av_frame_free(ptr noundef nonnull %3) #10
  %79 = getelementptr inbounds nuw i8, ptr %10, i64 80
  store ptr null, ptr %79, align 8, !tbaa !51
  %80 = call i32 @ff_filter_frame(ptr noundef %8, ptr noundef nonnull %30) #10
  br label %81

81:                                               ; preds = %._crit_edge, %31, %16
  %.0 = phi i32 [ %18, %16 ], [ %80, %._crit_edge ], [ -12, %31 ]
  ret i32 %.0
}